target datalayout = "e-m:e-p270:32:32-p271:32:32-p272:64:64-i64:64-i128:128-f80:128-n8:16:32:64-S128"
target triple = "x86_64-unknown-linux-gnu"

%"class.llvh::StringRef" = type { ptr, i64 }
%"class.std::__cxx11::basic_string" = type { %"struct.std::__cxx11::basic_string<char>::_Alloc_hider", i64, %union.anon }
%"struct.std::__cxx11::basic_string<char>::_Alloc_hider" = type { ptr }
%union.anon = type { i64, [8 x i8] }
%"struct.std::atomic" = type { %"struct.std::__atomic_base" }
%"struct.std::__atomic_base" = type { ptr }
%"class.llvh::Timer" = type { %"class.llvh::TimeRecord", %"class.llvh::TimeRecord", %"class.std::__cxx11::basic_string", %"class.std::__cxx11::basic_string", i8, i8, ptr, ptr, ptr }
%"class.llvh::TimeRecord" = type { double, double, double, i64 }
%"class.__gnu_cxx::__normal_iterator.54" = type { ptr }
%"class.__gnu_cxx::__normal_iterator.55" = type { ptr }
%"class.llvh::sys::SmartScopedLock" = type { ptr }
%"class.llvh::TimerGroup" = type { %"class.std::__cxx11::basic_string", %"class.std::__cxx11::basic_string", ptr, %"class.std::vector", ptr, ptr }
%"class.std::vector" = type { %"struct.std::_Vector_base" }
%"struct.std::_Vector_base" = type { %"struct.std::_Vector_base<llvh::TimerGroup::PrintRecord, std::allocator<llvh::TimerGroup::PrintRecord>>::_Vector_impl" }
%"struct.std::_Vector_base<llvh::TimerGroup::PrintRecord, std::allocator<llvh::TimerGroup::PrintRecord>>::_Vector_impl" = type { %"struct.std::_Vector_base<llvh::TimerGroup::PrintRecord, std::allocator<llvh::TimerGroup::PrintRecord>>::_Vector_impl_data" }
%"struct.std::_Vector_base<llvh::TimerGroup::PrintRecord, std::allocator<llvh::TimerGroup::PrintRecord>>::_Vector_impl_data" = type { ptr, ptr, ptr }
%"class.llvh::ManagedStaticBase" = type { %"struct.std::atomic", ptr, ptr }
%"class.llvh::sys::SmartMutex" = type <{ %"class.llvh::sys::MutexImpl", i32, i8, [3 x i8] }>
%"class.llvh::sys::MutexImpl" = type { ptr }

@_ZL9TimerLock = internal global { %"struct.std::atomic", ptr, ptr } zeroinitializer, align 8

; Function Attrs: mustprogress nounwind uwtable
define linkonce_odr noundef i32 @_ZStanSt12memory_orderSt23__memory_order_modifier(i32 noundef %__m, i32 noundef %__mod) #1 comdat {
entry:
  %__m.addr = alloca i32, align 4
  %__mod.addr = alloca i32, align 4
  store i32 %__m, ptr %__m.addr, align 4
  store i32 %__mod, ptr %__mod.addr, align 4
  %0 = load i32, ptr %__m.addr, align 4
  %1 = load i32, ptr %__mod.addr, align 4
  %and = and i32 %0, %1
  ret i32 %and
}

; Function Attrs: mustprogress nounwind uwtable
define linkonce_odr hidden noundef zeroext i1 @_ZN4llvh3sys10SmartMutexILb1EE6unlockEv(ptr noundef nonnull align 8 dereferenceable(13) %this) #1 comdat align 2 {
entry:
  %retval = alloca i1, align 1
  %this.addr = alloca ptr, align 8
  store ptr %this, ptr %this.addr, align 8
  %this1 = load ptr, ptr %this.addr, align 8
  %call = call noundef zeroext i1 @_ZN4llvh21llvm_is_multithreadedEv()
  br i1 %call, label %if.then, label %if.else

if.then:                                          ; preds = %entry
  %impl = getelementptr inbounds %"class.llvh::sys::SmartMutex", ptr %this1, i32 0, i32 0
  %call2 = call noundef zeroext i1 @_ZN4llvh3sys9MutexImpl7releaseEv(ptr noundef nonnull align 8 dereferenceable(8) %impl)
  store i1 %call2, ptr %retval, align 1
  br label %return

if.else:                                          ; preds = %entry
  %acquired = getelementptr inbounds %"class.llvh::sys::SmartMutex", ptr %this1, i32 0, i32 1
  %0 = load i32, ptr %acquired, align 8
  %dec = add i32 %0, -1
  store i32 %dec, ptr %acquired, align 8
  store i1 true, ptr %retval, align 1
  br label %return

return:                                           ; preds = %if.else, %if.then
  %1 = load i1, ptr %retval, align 1
  ret i1 %1
}

; Function Attrs: mustprogress nounwind uwtable
define linkonce_odr hidden noundef zeroext i1 @_ZN4llvh3sys10SmartMutexILb1EE4lockEv(ptr noundef nonnull align 8 dereferenceable(13) %this) #1 comdat align 2 {
entry:
  %retval = alloca i1, align 1
  %this.addr = alloca ptr, align 8
  store ptr %this, ptr %this.addr, align 8
  %this1 = load ptr, ptr %this.addr, align 8
  %call = call noundef zeroext i1 @_ZN4llvh21llvm_is_multithreadedEv()
  br i1 %call, label %if.then, label %if.else

if.then:                                          ; preds = %entry
  %impl = getelementptr inbounds %"class.llvh::sys::SmartMutex", ptr %this1, i32 0, i32 0
  %call2 = call noundef zeroext i1 @_ZN4llvh3sys9MutexImpl7acquireEv(ptr noundef nonnull align 8 dereferenceable(8) %impl)
  store i1 %call2, ptr %retval, align 1
  br label %return

if.else:                                          ; preds = %entry
  %acquired = getelementptr inbounds %"class.llvh::sys::SmartMutex", ptr %this1, i32 0, i32 1
  %0 = load i32, ptr %acquired, align 8
  %inc = add i32 %0, 1
  store i32 %inc, ptr %acquired, align 8
  store i1 true, ptr %retval, align 1
  br label %return

return:                                           ; preds = %if.else, %if.then
  %1 = load i1, ptr %retval, align 1
  ret i1 %1
}

; Function Attrs: mustprogress nounwind uwtable
define linkonce_odr noundef ptr @_ZNKSt6atomicIPvE4loadESt12memory_order(ptr noundef nonnull align 8 dereferenceable(8) %this, i32 noundef %__m) #1 comdat align 2 {
entry:
  %this.addr.i = alloca ptr, align 8
  %__m.addr.i = alloca i32, align 4
  %__b.i = alloca i32, align 4
  %atomic-temp.i = alloca ptr, align 8
  %this.addr = alloca ptr, align 8
  %__m.addr = alloca i32, align 4
  store ptr %this, ptr %this.addr, align 8
  store i32 %__m, ptr %__m.addr, align 4
  %this1 = load ptr, ptr %this.addr, align 8
  %_M_b = getelementptr inbounds %"struct.std::atomic", ptr %this1, i32 0, i32 0
  %0 = load i32, ptr %__m.addr, align 4
  store ptr %_M_b, ptr %this.addr.i, align 8
  store i32 %0, ptr %__m.addr.i, align 4
  %this1.i = load ptr, ptr %this.addr.i, align 8
  %1 = load i32, ptr %__m.addr.i, align 4
  %call.i = call noundef i32 @_ZStanSt12memory_orderSt23__memory_order_modifier(i32 noundef %1, i32 noundef 65535)
  store i32 %call.i, ptr %__b.i, align 4
  %2 = load i32, ptr %__m.addr.i, align 4
  switch i32 %2, label %monotonic.i [
    i32 1, label %acquire.i
    i32 2, label %acquire.i
    i32 5, label %seqcst.i
  ]

monotonic.i:                                      ; preds = %entry
  %3 = load atomic i64, ptr %this1.i monotonic, align 8
  store i64 %3, ptr %atomic-temp.i, align 8
  br label %_ZNKSt13__atomic_baseIPvE4loadESt12memory_order.exit

acquire.i:                                        ; preds = %entry, %entry
  %4 = load atomic i64, ptr %this1.i acquire, align 8
  store i64 %4, ptr %atomic-temp.i, align 8
  br label %_ZNKSt13__atomic_baseIPvE4loadESt12memory_order.exit

seqcst.i:                                         ; preds = %entry
  %5 = load atomic i64, ptr %this1.i seq_cst, align 8
  store i64 %5, ptr %atomic-temp.i, align 8
  br label %_ZNKSt13__atomic_baseIPvE4loadESt12memory_order.exit

_ZNKSt13__atomic_baseIPvE4loadESt12memory_order.exit: ; preds = %seqcst.i, %acquire.i, %monotonic.i
  %6 = load ptr, ptr %atomic-temp.i, align 8
  ret ptr %6
}

; Function Attrs: mustprogress nounwind uwtable
define linkonce_odr noundef nonnull align 8 dereferenceable(8) ptr @_ZNK9__gnu_cxx17__normal_iteratorIPcNSt7__cxx1112basic_stringIcSt11char_traitsIcESaIcEEEE4baseEv(ptr noundef nonnull align 8 dereferenceable(8) %this) #1 comdat align 2 {
entry:
  %this.addr = alloca ptr, align 8
  store ptr %this, ptr %this.addr, align 8
  %this1 = load ptr, ptr %this.addr, align 8
  %_M_current = getelementptr inbounds %"class.__gnu_cxx::__normal_iterator.55", ptr %this1, i32 0, i32 0
  ret ptr %_M_current
}

; Function Attrs: mustprogress nounwind uwtable
define linkonce_odr hidden void @_ZN4llvh3sys15SmartScopedLockILb1EED2Ev(ptr noundef nonnull align 8 dereferenceable(8) %this) unnamed_addr #1 comdat align 2 {
entry:
  %this.addr = alloca ptr, align 8
  store ptr %this, ptr %this.addr, align 8
  %this1 = load ptr, ptr %this.addr, align 8
  %mtx = getelementptr inbounds %"class.llvh::sys::SmartScopedLock", ptr %this1, i32 0, i32 0
  %0 = load ptr, ptr %mtx, align 8
  %call = call noundef zeroext i1 @_ZN4llvh3sys10SmartMutexILb1EE6unlockEv(ptr noundef nonnull align 8 dereferenceable(13) %0)
  ret void
}

; Function Attrs: mustprogress nounwind uwtable
define linkonce_odr hidden void @_ZN4llvh3sys15SmartScopedLockILb1EEC2ERNS0_10SmartMutexILb1EEE(ptr noundef nonnull align 8 dereferenceable(8) %this, ptr noundef nonnull align 8 dereferenceable(13) %m) unnamed_addr #1 comdat align 2 {
entry:
  %this.addr = alloca ptr, align 8
  %m.addr = alloca ptr, align 8
  store ptr %this, ptr %this.addr, align 8
  store ptr %m, ptr %m.addr, align 8
  %this1 = load ptr, ptr %this.addr, align 8
  %mtx = getelementptr inbounds %"class.llvh::sys::SmartScopedLock", ptr %this1, i32 0, i32 0
  %0 = load ptr, ptr %m.addr, align 8
  store ptr %0, ptr %mtx, align 8
  %mtx2 = getelementptr inbounds %"class.llvh::sys::SmartScopedLock", ptr %this1, i32 0, i32 0
  %1 = load ptr, ptr %mtx2, align 8
  %call = call noundef zeroext i1 @_ZN4llvh3sys10SmartMutexILb1EE4lockEv(ptr noundef nonnull align 8 dereferenceable(13) %1)
  ret void
}

; Function Attrs: mustprogress nounwind uwtable
define linkonce_odr hidden noundef nonnull align 8 dereferenceable(13) ptr @_ZN4llvh13ManagedStaticINS_3sys10SmartMutexILb1EEENS_14object_creatorIS3_EENS_14object_deleterIS3_EEEdeEv(ptr noundef nonnull align 8 dereferenceable(24) %this) #1 comdat align 2 {
entry:
  %this.addr = alloca ptr, align 8
  %Tmp = alloca ptr, align 8
  store ptr %this, ptr %this.addr, align 8
  %this1 = load ptr, ptr %this.addr, align 8
  %Ptr = getelementptr inbounds %"class.llvh::ManagedStaticBase", ptr %this1, i32 0, i32 0
  %call = call noundef ptr @_ZNKSt6atomicIPvE4loadESt12memory_order(ptr noundef nonnull align 8 dereferenceable(8) %Ptr, i32 noundef 2) #2
  store ptr %call, ptr %Tmp, align 8
  %0 = load ptr, ptr %Tmp, align 8
  %tobool = icmp ne ptr %0, null
  br i1 %tobool, label %if.end, label %if.then

if.then:                                          ; preds = %entry
  call void @_ZNK4llvh17ManagedStaticBase21RegisterManagedStaticEPFPvvEPFvS1_E(ptr noundef nonnull align 8 dereferenceable(24) %this1, ptr noundef @_ZN4llvh14object_creatorINS_3sys10SmartMutexILb1EEEE4callEv, ptr noundef @_ZN4llvh14object_deleterINS_3sys10SmartMutexILb1EEEE4callEPv)
  br label %if.end

if.end:                                           ; preds = %if.then, %entry
  %Ptr2 = getelementptr inbounds %"class.llvh::ManagedStaticBase", ptr %this1, i32 0, i32 0
  %call3 = call noundef ptr @_ZNKSt6atomicIPvE4loadESt12memory_order(ptr noundef nonnull align 8 dereferenceable(8) %Ptr2, i32 noundef 0) #2
  ret ptr %call3
}

; Function Attrs: mustprogress nounwind uwtable
define linkonce_odr void @_ZN9__gnu_cxx17__normal_iteratorIPKcNSt7__cxx1112basic_stringIcSt11char_traitsIcESaIcEEEEC2IPcvEERKNS0_IT_S8_EE(ptr noundef nonnull align 8 dereferenceable(8) %this, ptr noundef nonnull align 8 dereferenceable(8) %__i) unnamed_addr #1 comdat align 2 {
entry:
  %this.addr = alloca ptr, align 8
  %__i.addr = alloca ptr, align 8
  store ptr %this, ptr %this.addr, align 8
  store ptr %__i, ptr %__i.addr, align 8
  %this1 = load ptr, ptr %this.addr, align 8
  %_M_current = getelementptr inbounds %"class.__gnu_cxx::__normal_iterator.54", ptr %this1, i32 0, i32 0
  %0 = load ptr, ptr %__i.addr, align 8
  %call = call noundef nonnull align 8 dereferenceable(8) ptr @_ZNK9__gnu_cxx17__normal_iteratorIPcNSt7__cxx1112basic_stringIcSt11char_traitsIcESaIcEEEE4baseEv(ptr noundef nonnull align 8 dereferenceable(8) %0) #2
  %1 = load ptr, ptr %call, align 8
  store ptr %1, ptr %_M_current, align 8
  ret void
}

; Function Attrs: mustprogress nounwind uwtable
define hidden void @_ZN4llvh10TimerGroup8addTimerERNS_5TimerE(ptr noundef nonnull align 8 dereferenceable(112) %this, ptr noundef nonnull align 8 dereferenceable(160) %T) #1 align 2 {
entry:
  %this.addr = alloca ptr, align 8
  %T.addr = alloca ptr, align 8
  %L = alloca %"class.llvh::sys::SmartScopedLock", align 8
  store ptr %this, ptr %this.addr, align 8
  store ptr %T, ptr %T.addr, align 8
  %this1 = load ptr, ptr %this.addr, align 8
  %call = call noundef nonnull align 8 dereferenceable(13) ptr @_ZN4llvh13ManagedStaticINS_3sys10SmartMutexILb1EEENS_14object_creatorIS3_EENS_14object_deleterIS3_EEEdeEv(ptr noundef nonnull align 8 dereferenceable(24) @_ZL9TimerLock)
  call void @_ZN4llvh3sys15SmartScopedLockILb1EEC2ERNS0_10SmartMutexILb1EEE(ptr noundef nonnull align 8 dereferenceable(8) %L, ptr noundef nonnull align 8 dereferenceable(13) %call)
  %FirstTimer = getelementptr inbounds %"class.llvh::TimerGroup", ptr %this1, i32 0, i32 2
  %0 = load ptr, ptr %FirstTimer, align 8
  %tobool = icmp ne ptr %0, null
  br i1 %tobool, label %if.then, label %if.end

if.then:                                          ; preds = %entry
  %1 = load ptr, ptr %T.addr, align 8
  %Next = getelementptr inbounds %"class.llvh::Timer", ptr %1, i32 0, i32 8
  %FirstTimer2 = getelementptr inbounds %"class.llvh::TimerGroup", ptr %this1, i32 0, i32 2
  %2 = load ptr, ptr %FirstTimer2, align 8
  %Prev = getelementptr inbounds %"class.llvh::Timer", ptr %2, i32 0, i32 7
  store ptr %Next, ptr %Prev, align 8
  br label %if.end

if.end:                                           ; preds = %if.then, %entry
  %FirstTimer3 = getelementptr inbounds %"class.llvh::TimerGroup", ptr %this1, i32 0, i32 2
  %3 = load ptr, ptr %FirstTimer3, align 8
  %4 = load ptr, ptr %T.addr, align 8
  %Next4 = getelementptr inbounds %"class.llvh::Timer", ptr %4, i32 0, i32 8
  store ptr %3, ptr %Next4, align 8
  %FirstTimer5 = getelementptr inbounds %"class.llvh::TimerGroup", ptr %this1, i32 0, i32 2
  %5 = load ptr, ptr %T.addr, align 8
  %Prev6 = getelementptr inbounds %"class.llvh::Timer", ptr %5, i32 0, i32 7
  store ptr %FirstTimer5, ptr %Prev6, align 8
  %6 = load ptr, ptr %T.addr, align 8
  %FirstTimer7 = getelementptr inbounds %"class.llvh::TimerGroup", ptr %this1, i32 0, i32 2
  store ptr %6, ptr %FirstTimer7, align 8
  call void @_ZN4llvh3sys15SmartScopedLockILb1EED2Ev(ptr noundef nonnull align 8 dereferenceable(8) %L) #2
  ret void
}

; Function Attrs: mustprogress nounwind uwtable
define linkonce_odr noundef nonnull align 8 dereferenceable(32) ptr @_ZNSt7__cxx1112basic_stringIcSt11char_traitsIcESaIcEE6assignIPKcvEERS4_T_S9_(ptr noundef nonnull align 8 dereferenceable(32) %this, ptr noundef %__first, ptr noundef %__last) #1 comdat align 2 {
entry:
  %this.addr = alloca ptr, align 8
  %__first.addr = alloca ptr, align 8
  %__last.addr = alloca ptr, align 8
  %agg.tmp = alloca %"class.__gnu_cxx::__normal_iterator.54", align 8
  %ref.tmp = alloca %"class.__gnu_cxx::__normal_iterator.55", align 8
  %agg.tmp2 = alloca %"class.__gnu_cxx::__normal_iterator.54", align 8
  %ref.tmp3 = alloca %"class.__gnu_cxx::__normal_iterator.55", align 8
  store ptr %this, ptr %this.addr, align 8
  store ptr %__first, ptr %__first.addr, align 8
  store ptr %__last, ptr %__last.addr, align 8
  %this1 = load ptr, ptr %this.addr, align 8
  %call = call ptr @_ZNSt7__cxx1112basic_stringIcSt11char_traitsIcESaIcEE5beginEv(ptr noundef nonnull align 8 dereferenceable(32) %this1) #2
  %coerce.dive = getelementptr inbounds %"class.__gnu_cxx::__normal_iterator.55", ptr %ref.tmp, i32 0, i32 0
  store ptr %call, ptr %coerce.dive, align 8
  call void @_ZN9__gnu_cxx17__normal_iteratorIPKcNSt7__cxx1112basic_stringIcSt11char_traitsIcESaIcEEEEC2IPcvEERKNS0_IT_S8_EE(ptr noundef nonnull align 8 dereferenceable(8) %agg.tmp, ptr noundef nonnull align 8 dereferenceable(8) %ref.tmp) #2
  %call4 = call ptr @_ZNSt7__cxx1112basic_stringIcSt11char_traitsIcESaIcEE3endEv(ptr noundef nonnull align 8 dereferenceable(32) %this1) #2
  %coerce.dive5 = getelementptr inbounds %"class.__gnu_cxx::__normal_iterator.55", ptr %ref.tmp3, i32 0, i32 0
  store ptr %call4, ptr %coerce.dive5, align 8
  call void @_ZN9__gnu_cxx17__normal_iteratorIPKcNSt7__cxx1112basic_stringIcSt11char_traitsIcESaIcEEEEC2IPcvEERKNS0_IT_S8_EE(ptr noundef nonnull align 8 dereferenceable(8) %agg.tmp2, ptr noundef nonnull align 8 dereferenceable(8) %ref.tmp3) #2
  %0 = load ptr, ptr %__first.addr, align 8
  %1 = load ptr, ptr %__last.addr, align 8
  %coerce.dive6 = getelementptr inbounds %"class.__gnu_cxx::__normal_iterator.54", ptr %agg.tmp, i32 0, i32 0
  %2 = load ptr, ptr %coerce.dive6, align 8
  %coerce.dive7 = getelementptr inbounds %"class.__gnu_cxx::__normal_iterator.54", ptr %agg.tmp2, i32 0, i32 0
  %3 = load ptr, ptr %coerce.dive7, align 8
  %call8 = call noundef nonnull align 8 dereferenceable(32) ptr @_ZNSt7__cxx1112basic_stringIcSt11char_traitsIcESaIcEE7replaceEN9__gnu_cxx17__normal_iteratorIPKcS4_EES9_S8_S8_(ptr noundef nonnull align 8 dereferenceable(32) %this1, ptr %2, ptr %3, ptr noundef %0, ptr noundef %1)
  ret ptr %call8
}

; Function Attrs: mustprogress nounwind uwtable
define linkonce_odr hidden noundef ptr @_ZNK4llvh9StringRef3endEv(ptr noundef nonnull align 8 dereferenceable(16) %this) #1 comdat align 2 {
entry:
  %this.addr = alloca ptr, align 8
  store ptr %this, ptr %this.addr, align 8
  %this1 = load ptr, ptr %this.addr, align 8
  %Data = getelementptr inbounds %"class.llvh::StringRef", ptr %this1, i32 0, i32 0
  %0 = load ptr, ptr %Data, align 8
  %Length = getelementptr inbounds %"class.llvh::StringRef", ptr %this1, i32 0, i32 1
  %1 = load i64, ptr %Length, align 8
  %add.ptr = getelementptr inbounds i8, ptr %0, i64 %1
  ret ptr %add.ptr
}

; Function Attrs: mustprogress nounwind uwtable
define linkonce_odr hidden noundef ptr @_ZNK4llvh9StringRef5beginEv(ptr noundef nonnull align 8 dereferenceable(16) %this) #1 comdat align 2 {
entry:
  %this.addr = alloca ptr, align 8
  store ptr %this, ptr %this.addr, align 8
  %this1 = load ptr, ptr %this.addr, align 8
  %Data = getelementptr inbounds %"class.llvh::StringRef", ptr %this1, i32 0, i32 0
  %0 = load ptr, ptr %Data, align 8
  ret ptr %0
}

; Function Attrs: mustprogress nounwind uwtable
define hidden void @_ZN4llvh5Timer4initENS_9StringRefES1_RNS_10TimerGroupE(ptr noundef nonnull align 8 dereferenceable(160) %this, ptr %Name.coerce0, i64 %Name.coerce1, ptr %Description.coerce0, i64 %Description.coerce1, ptr noundef nonnull align 8 dereferenceable(112) %tg) #1 align 2 {
entry:
  %Name = alloca %"class.llvh::StringRef", align 8
  %Description = alloca %"class.llvh::StringRef", align 8
  %this.addr = alloca ptr, align 8
  %tg.addr = alloca ptr, align 8
  %0 = getelementptr inbounds { ptr, i64 }, ptr %Name, i32 0, i32 0
  store ptr %Name.coerce0, ptr %0, align 8
  %1 = getelementptr inbounds { ptr, i64 }, ptr %Name, i32 0, i32 1
  store i64 %Name.coerce1, ptr %1, align 8
  %2 = getelementptr inbounds { ptr, i64 }, ptr %Description, i32 0, i32 0
  store ptr %Description.coerce0, ptr %2, align 8
  %3 = getelementptr inbounds { ptr, i64 }, ptr %Description, i32 0, i32 1
  store i64 %Description.coerce1, ptr %3, align 8
  store ptr %this, ptr %this.addr, align 8
  store ptr %tg, ptr %tg.addr, align 8
  %this1 = load ptr, ptr %this.addr, align 8
  %Name2 = getelementptr inbounds %"class.llvh::Timer", ptr %this1, i32 0, i32 2
  %call = call noundef ptr @_ZNK4llvh9StringRef5beginEv(ptr noundef nonnull align 8 dereferenceable(16) %Name)
  %call3 = call noundef ptr @_ZNK4llvh9StringRef3endEv(ptr noundef nonnull align 8 dereferenceable(16) %Name)
  %call4 = call noundef nonnull align 8 dereferenceable(32) ptr @_ZNSt7__cxx1112basic_stringIcSt11char_traitsIcESaIcEE6assignIPKcvEERS4_T_S9_(ptr noundef nonnull align 8 dereferenceable(32) %Name2, ptr noundef %call, ptr noundef %call3)
  %Description5 = getelementptr inbounds %"class.llvh::Timer", ptr %this1, i32 0, i32 3
  %call6 = call noundef ptr @_ZNK4llvh9StringRef5beginEv(ptr noundef nonnull align 8 dereferenceable(16) %Description)
  %call7 = call noundef ptr @_ZNK4llvh9StringRef3endEv(ptr noundef nonnull align 8 dereferenceable(16) %Description)
  %call8 = call noundef nonnull align 8 dereferenceable(32) ptr @_ZNSt7__cxx1112basic_stringIcSt11char_traitsIcESaIcEE6assignIPKcvEERS4_T_S9_(ptr noundef nonnull align 8 dereferenceable(32) %Description5, ptr noundef %call6, ptr noundef %call7)
  %Triggered = getelementptr inbounds %"class.llvh::Timer", ptr %this1, i32 0, i32 5
  store i8 0, ptr %Triggered, align 1
  %Running = getelementptr inbounds %"class.llvh::Timer", ptr %this1, i32 0, i32 4
  store i8 0, ptr %Running, align 8
  %4 = load ptr, ptr %tg.addr, align 8
  %TG = getelementptr inbounds %"class.llvh::Timer", ptr %this1, i32 0, i32 6
  store ptr %4, ptr %TG, align 8
  %TG9 = getelementptr inbounds %"class.llvh::Timer", ptr %this1, i32 0, i32 6
  %5 = load ptr, ptr %TG9, align 8
  call void @_ZN4llvh10TimerGroup8addTimerERNS_5TimerE(ptr noundef nonnull align 8 dereferenceable(112) %5, ptr noundef nonnull align 8 dereferenceable(160) %this1)
  ret void
}