; Function Attrs: mustprogress nounwind uwtable
define hidden void @_ZN4llvh5Timer4initENS_9StringRefES1_RNS_10TimerGroupE(ptr noundef nonnull align 8 dereferenceable(160) %this, ptr %Name.coerce0, i64 %Name.coerce1, ptr %Description.coerce0, i64 %Description.coerce1, ptr noundef nonnull align 8 dereferenceable(112) %tg) local_unnamed_addr #0 align 2 {
entry:
  %Name2 = getelementptr inbounds i8, ptr %this, i64 64
  %add.ptr.i = getelementptr inbounds i8, ptr %Name.coerce0, i64 %Name.coerce1
  %call.i = tail call ptr @_ZNSt7__cxx1112basic_stringIcSt11char_traitsIcESaIcEE5beginEv(ptr noundef nonnull align 8 dereferenceable(32) %Name2) #21
  %call4.i = tail call ptr @_ZNSt7__cxx1112basic_stringIcSt11char_traitsIcESaIcEE3endEv(ptr noundef nonnull align 8 dereferenceable(32) %Name2) #21
  %call8.i = tail call noundef nonnull align 8 dereferenceable(32) ptr @_ZNSt7__cxx1112basic_stringIcSt11char_traitsIcESaIcEE7replaceEN9__gnu_cxx17__normal_iteratorIPKcS4_EES9_S8_S8_(ptr noundef nonnull align 8 dereferenceable(32) %Name2, ptr %call.i, ptr %call4.i, ptr noundef %Name.coerce0, ptr noundef %add.ptr.i) #21
  %Description5 = getelementptr inbounds i8, ptr %this, i64 96
  %add.ptr.i2 = getelementptr inbounds i8, ptr %Description.coerce0, i64 %Description.coerce1
  %call.i3 = tail call ptr @_ZNSt7__cxx1112basic_stringIcSt11char_traitsIcESaIcEE5beginEv(ptr noundef nonnull align 8 dereferenceable(32) %Description5) #21
  %call4.i4 = tail call ptr @_ZNSt7__cxx1112basic_stringIcSt11char_traitsIcESaIcEE3endEv(ptr noundef nonnull align 8 dereferenceable(32) %Description5) #21
  %call8.i5 = tail call noundef nonnull align 8 dereferenceable(32) ptr @_ZNSt7__cxx1112basic_stringIcSt11char_traitsIcESaIcEE7replaceEN9__gnu_cxx17__normal_iteratorIPKcS4_EES9_S8_S8_(ptr noundef nonnull align 8 dereferenceable(32) %Description5, ptr %call.i3, ptr %call4.i4, ptr noundef %Description.coerce0, ptr noundef %add.ptr.i2) #21
  %Triggered = getelementptr inbounds i8, ptr %this, i64 129
  store i8 0, ptr %Triggered, align 1
  %Running = getelementptr inbounds i8, ptr %this, i64 128
  store i8 0, ptr %Running, align 8
  %TG = getelementptr inbounds i8, ptr %this, i64 136
  store ptr %tg, ptr %TG, align 8
  %0 = load atomic i64, ptr @_ZL9TimerLock acquire, align 8
  %tobool.not.i.i = icmp eq i64 %0, 0
  br i1 %tobool.not.i.i, label %if.then.i.i, label %_ZN4llvh13ManagedStaticINS_3sys10SmartMutexILb1EEENS_14object_creatorIS3_EENS_14object_deleterIS3_EEEdeEv.exit.i

if.then.i.i:                                      ; preds = %entry
  tail call void @_ZNK4llvh17ManagedStaticBase21RegisterManagedStaticEPFPvvEPFvS1_E(ptr noundef nonnull align 8 dereferenceable(24) @_ZL9TimerLock, ptr noundef nonnull @_ZN4llvh14object_creatorINS_3sys10SmartMutexILb1EEEE4callEv, ptr noundef nonnull @_ZN4llvh14object_deleterINS_3sys10SmartMutexILb1EEEE4callEPv) #21
  br label %_ZN4llvh13ManagedStaticINS_3sys10SmartMutexILb1EEENS_14object_creatorIS3_EENS_14object_deleterIS3_EEEdeEv.exit.i

_ZN4llvh13ManagedStaticINS_3sys10SmartMutexILb1EEENS_14object_creatorIS3_EENS_14object_deleterIS3_EEEdeEv.exit.i: ; preds = %if.then.i.i, %entry
  %1 = load atomic i64, ptr @_ZL9TimerLock monotonic, align 8
  %atomic-temp.i.0.i1.i.i = inttoptr i64 %1 to ptr
  %call.i.i.i = tail call noundef zeroext i1 @_ZN4llvh21llvm_is_multithreadedEv() #21
  br i1 %call.i.i.i, label %if.then.i.i.i, label %if.else.i.i.i

if.then.i.i.i:                                    ; preds = %_ZN4llvh13ManagedStaticINS_3sys10SmartMutexILb1EEENS_14object_creatorIS3_EENS_14object_deleterIS3_EEEdeEv.exit.i
  %call2.i.i.i = tail call noundef zeroext i1 @_ZN4llvh3sys9MutexImpl7acquireEv(ptr noundef nonnull align 8 dereferenceable(8) %atomic-temp.i.0.i1.i.i) #21
  br label %_ZN4llvh3sys15SmartScopedLockILb1EEC2ERNS0_10SmartMutexILb1EEE.exit.i

if.else.i.i.i:                                    ; preds = %_ZN4llvh13ManagedStaticINS_3sys10SmartMutexILb1EEENS_14object_creatorIS3_EENS_14object_deleterIS3_EEEdeEv.exit.i
  %acquired.i.i.i = getelementptr inbounds i8, ptr %atomic-temp.i.0.i1.i.i, i64 8
  %2 = load i32, ptr %acquired.i.i.i, align 8
  %inc.i.i.i = add i32 %2, 1
  store i32 %inc.i.i.i, ptr %acquired.i.i.i, align 8
  br label %_ZN4llvh3sys15SmartScopedLockILb1EEC2ERNS0_10SmartMutexILb1EEE.exit.i

_ZN4llvh3sys15SmartScopedLockILb1EEC2ERNS0_10SmartMutexILb1EEE.exit.i: ; preds = %if.else.i.i.i, %if.then.i.i.i
  %FirstTimer.i = getelementptr inbounds i8, ptr %tg, i64 64
  %3 = load ptr, ptr %FirstTimer.i, align 8
  %tobool.not.i = icmp eq ptr %3, null
  br i1 %tobool.not.i, label %if.end.i, label %if.then.i

if.then.i:                                        ; preds = %_ZN4llvh3sys15SmartScopedLockILb1EEC2ERNS0_10SmartMutexILb1EEE.exit.i
  %Next.i = getelementptr inbounds i8, ptr %this, i64 152
  %Prev.i = getelementptr inbounds i8, ptr %3, i64 144
  store ptr %Next.i, ptr %Prev.i, align 8
  %.pre.i = load ptr, ptr %FirstTimer.i, align 8
  br label %if.end.i

if.end.i:                                         ; preds = %if.then.i, %_ZN4llvh3sys15SmartScopedLockILb1EEC2ERNS0_10SmartMutexILb1EEE.exit.i
  %4 = phi ptr [ %.pre.i, %if.then.i ], [ null, %_ZN4llvh3sys15SmartScopedLockILb1EEC2ERNS0_10SmartMutexILb1EEE.exit.i ]
  %Next4.i = getelementptr inbounds i8, ptr %this, i64 152
  store ptr %4, ptr %Next4.i, align 8
  %Prev6.i = getelementptr inbounds i8, ptr %this, i64 144
  store ptr %FirstTimer.i, ptr %Prev6.i, align 8
  store ptr %this, ptr %FirstTimer.i, align 8
  %call.i.i4.i = tail call noundef zeroext i1 @_ZN4llvh21llvm_is_multithreadedEv() #21
  br i1 %call.i.i4.i, label %if.then.i.i7.i, label %if.else.i.i5.i

if.then.i.i7.i:                                   ; preds = %if.end.i
  %call2.i.i8.i = tail call noundef zeroext i1 @_ZN4llvh3sys9MutexImpl7releaseEv(ptr noundef nonnull align 8 dereferenceable(8) %atomic-temp.i.0.i1.i.i) #21
  br label %_ZN4llvh10TimerGroup8addTimerERNS_5TimerE.exit

if.else.i.i5.i:                                   ; preds = %if.end.i
  %acquired.i.i6.i = getelementptr inbounds i8, ptr %atomic-temp.i.0.i1.i.i, i64 8
  %5 = load i32, ptr %acquired.i.i6.i, align 8
  %dec.i.i.i = add i32 %5, -1
  store i32 %dec.i.i.i, ptr %acquired.i.i6.i, align 8
  br label %_ZN4llvh10TimerGroup8addTimerERNS_5TimerE.exit

_ZN4llvh10TimerGroup8addTimerERNS_5TimerE.exit:   ; preds = %if.then.i.i7.i, %if.else.i.i5.i
  ret void
}